; Function Attrs: mustprogress nofree norecurse nosync nounwind memory(read, inaccessiblemem: write) uwtable
define dso_local ptr @_ZNK4Luau13DataFlowGraph6getDefEPKNS_8AstLocalE(ptr noundef nonnull readonly align 8 captures(none) dereferenceable(216) %0, ptr noundef %1) local_unnamed_addr #5 align 2 {
  %3 = getelementptr inbounds nuw i8, ptr %0, i64 56
  %4 = getelementptr inbounds nuw i8, ptr %0, i64 72
  %5 = load i64, ptr %4, align 8, !tbaa !58
  %6 = icmp ne i64 %5, 0
  tail call void @llvm.assume(i1 %6)
  %7 = getelementptr inbounds nuw i8, ptr %0, i64 80
  %8 = load ptr, ptr %7, align 8, !tbaa !63
  %9 = icmp ne ptr %1, %8
  tail call void @llvm.assume(i1 %9)
  %10 = getelementptr inbounds nuw i8, ptr %0, i64 64
  %11 = load i64, ptr %10, align 8, !tbaa !64
  %12 = add i64 %11, -1
  %13 = ptrtoint ptr %1 to i64
  %14 = lshr i64 %13, 4
  %15 = lshr i64 %13, 9
  %16 = xor i64 %14, %15
  %17 = load ptr, ptr %3, align 8, !tbaa !65
  %.02129.i.i2 = and i64 %16, %12
  %18 = getelementptr inbounds nuw %"struct.std::pair.130", ptr %17, i64 %.02129.i.i2
  %19 = load ptr, ptr %18, align 8, !tbaa !63
  %20 = icmp eq ptr %19, %1
  br i1 %20, label %_ZNK4Luau12DenseHashMapIPKNS_8AstLocalEPKNS_3DefENS_16DenseHashPointerESt8equal_toIS3_EE4findERKS3_.exit, label %.lr.ph

.lr.ph:                                           ; preds = %2, %.lr.ph
  %21 = phi ptr [ %26, %.lr.ph ], [ %19, %2 ]
  %.02129.i.i4 = phi i64 [ %.02129.i.i, %.lr.ph ], [ %.02129.i.i2, %2 ]
  %.02028.i.i3 = phi i64 [ %23, %.lr.ph ], [ 0, %2 ]
  %22 = icmp ne ptr %21, %8
  tail call void @llvm.assume(i1 %22)
  %23 = add i64 %.02028.i.i3, 1
  %24 = add i64 %23, %.02129.i.i4
  %.not.i.i = icmp ule i64 %23, %12
  tail call void @llvm.assume(i1 %.not.i.i)
  %.02129.i.i = and i64 %24, %12
  %25 = getelementptr inbounds nuw %"struct.std::pair.130", ptr %17, i64 %.02129.i.i
  %26 = load ptr, ptr %25, align 8, !tbaa !63
  %27 = icmp eq ptr %26, %1
  br i1 %27, label %_ZNK4Luau12DenseHashMapIPKNS_8AstLocalEPKNS_3DefENS_16DenseHashPointerESt8equal_toIS3_EE4findERKS3_.exit, label %.lr.ph

_ZNK4Luau12DenseHashMapIPKNS_8AstLocalEPKNS_3DefENS_16DenseHashPointerESt8equal_toIS3_EE4findERKS3_.exit: ; preds = %.lr.ph, %2
  %28 = phi i64 [ %.02129.i.i2, %2 ], [ %.02129.i.i, %.lr.ph ]
  %29 = getelementptr inbounds nuw %"struct.std::pair.130", ptr %17, i64 %28, i32 1
  %30 = load ptr, ptr %29, align 8, !tbaa !20
  ret ptr %30
}